target datalayout = "e-m:e-p270:32:32-p271:32:32-p272:64:64-i64:64-i128:128-f80:128-n8:16:32:64-S128"
target triple = "x86_64-unknown-linux-gnu"

%"class.icu_75::UObject" = type { ptr }
%"class.icu_75::UnicodeString" = type { %"class.icu_75::Replaceable", %"union.icu_75::UnicodeString::StackBufferOrFields" }
%"class.icu_75::Replaceable" = type { %"class.icu_75::UObject" }
%"union.icu_75::UnicodeString::StackBufferOrFields" = type { %struct.anon.0, [32 x i8] }
%struct.anon.0 = type { i16, i32, i32, ptr }
%"class.icu_75::ConstChar16Ptr" = type { ptr }
%"class.icu_75::TZDBNames" = type <{ ptr, ptr, ptr, i32, [4 x i8] }>

; Function Attrs: mustprogress nounwind uwtable
define linkonce_odr void @_ZN6icu_7514ConstChar16PtrD2Ev(ptr noundef nonnull align 8 dereferenceable(8) %this) unnamed_addr #0 comdat align 2 {
entry:
  %this.addr = alloca ptr, align 8
  store ptr %this, ptr %this.addr, align 8
  %this1 = load ptr, ptr %this.addr, align 8
  %p_ = getelementptr inbounds %"class.icu_75::ConstChar16Ptr", ptr %this1, i32 0, i32 0
  %0 = load ptr, ptr %p_, align 8
  call void asm sideeffect "", "rm,~{memory},~{dirflag},~{fpsr},~{flags}"(ptr %0) #10, !srcloc !11
  ret void
}

; Function Attrs: mustprogress nounwind uwtable
define linkonce_odr void @_ZN6icu_7514ConstChar16PtrC2EPKDs(ptr noundef nonnull align 8 dereferenceable(8) %this, ptr noundef %p) unnamed_addr #0 comdat align 2 {
entry:
  %this.addr = alloca ptr, align 8
  %p.addr = alloca ptr, align 8
  store ptr %this, ptr %this.addr, align 8
  store ptr %p, ptr %p.addr, align 8
  %this1 = load ptr, ptr %this.addr, align 8
  %p_ = getelementptr inbounds %"class.icu_75::ConstChar16Ptr", ptr %this1, i32 0, i32 0
  %0 = load ptr, ptr %p.addr, align 8
  store ptr %0, ptr %p_, align 8
  ret void
}

; Function Attrs: mustprogress nounwind uwtable
define noundef ptr @_ZNK6icu_759TZDBNames7getNameE17UTimeZoneNameType(ptr noundef nonnull align 8 dereferenceable(28) %this, i32 noundef %type) #0 align 2 {
entry:
  %retval = alloca ptr, align 8
  %this.addr = alloca ptr, align 8
  %type.addr = alloca i32, align 4
  %name = alloca ptr, align 8
  store ptr %this, ptr %this.addr, align 8
  store i32 %type, ptr %type.addr, align 4
  %this1 = load ptr, ptr %this.addr, align 8
  %fNames = getelementptr inbounds %"class.icu_75::TZDBNames", ptr %this1, i32 0, i32 1
  %0 = load ptr, ptr %fNames, align 8
  %cmp = icmp eq ptr %0, null
  br i1 %cmp, label %if.then, label %if.end

if.then:                                          ; preds = %entry
  store ptr null, ptr %retval, align 8
  br label %return

if.end:                                           ; preds = %entry
  store ptr null, ptr %name, align 8
  %1 = load i32, ptr %type.addr, align 4
  switch i32 %1, label %sw.default [
    i32 16, label %sw.bb
    i32 32, label %sw.bb3
  ]

sw.bb:                                            ; preds = %if.end
  %fNames2 = getelementptr inbounds %"class.icu_75::TZDBNames", ptr %this1, i32 0, i32 1
  %2 = load ptr, ptr %fNames2, align 8
  %arrayidx = getelementptr inbounds ptr, ptr %2, i64 0
  %3 = load ptr, ptr %arrayidx, align 8
  store ptr %3, ptr %name, align 8
  br label %sw.epilog

sw.bb3:                                           ; preds = %if.end
  %fNames4 = getelementptr inbounds %"class.icu_75::TZDBNames", ptr %this1, i32 0, i32 1
  %4 = load ptr, ptr %fNames4, align 8
  %arrayidx5 = getelementptr inbounds ptr, ptr %4, i64 1
  %5 = load ptr, ptr %arrayidx5, align 8
  store ptr %5, ptr %name, align 8
  br label %sw.epilog

sw.default:                                       ; preds = %if.end
  store ptr null, ptr %name, align 8
  br label %sw.epilog

sw.epilog:                                        ; preds = %sw.default, %sw.bb3, %sw.bb
  %6 = load ptr, ptr %name, align 8
  store ptr %6, ptr %retval, align 8
  br label %return

return:                                           ; preds = %sw.epilog, %if.then
  %7 = load ptr, ptr %retval, align 8
  ret ptr %7
}

; Function Attrs: mustprogress nounwind uwtable
define internal noundef signext i8 @_ZL9U_SUCCESS10UErrorCode(i32 noundef %code) #0 {
entry:
  %code.addr = alloca i32, align 4
  store i32 %code, ptr %code.addr, align 4
  %0 = load i32, ptr %code.addr, align 4
  %cmp = icmp sle i32 %0, 0
  %conv = zext i1 %cmp to i8
  ret i8 %conv
}

; Function Attrs: mustprogress nounwind uwtable
define linkonce_odr noundef signext i8 @_ZNK6icu_7513UnicodeString7isEmptyEv(ptr noundef nonnull align 8 dereferenceable(64) %this) #0 comdat align 2 {
entry:
  %this.addr = alloca ptr, align 8
  store ptr %this, ptr %this.addr, align 8
  %this1 = load ptr, ptr %this.addr, align 8
  %fUnion = getelementptr inbounds %"class.icu_75::UnicodeString", ptr %this1, i32 0, i32 1
  %fLengthAndFlags = getelementptr inbounds %struct.anon.0, ptr %fUnion, i32 0, i32 0
  %0 = load i16, ptr %fLengthAndFlags, align 8
  %conv = sext i16 %0 to i32
  %shr = ashr i32 %conv, 5
  %cmp = icmp eq i32 %shr, 0
  %conv2 = zext i1 %cmp to i8
  ret i8 %conv2
}

; Function Attrs: mustprogress uwtable
define noundef nonnull align 8 dereferenceable(64) ptr @_ZNK6icu_7517TZDBTimeZoneNames22getMetaZoneDisplayNameERKNS_13UnicodeStringE17UTimeZoneNameTypeRS1_(ptr noundef nonnull align 8 dereferenceable(236) %this, ptr noundef nonnull align 8 dereferenceable(64) %mzID, i32 noundef %type, ptr noundef nonnull align 8 dereferenceable(64) %name) unnamed_addr #1 align 2 personality ptr @__gxx_personality_v0 {
entry:
  %retval = alloca ptr, align 8
  %this.addr = alloca ptr, align 8
  %mzID.addr = alloca ptr, align 8
  %type.addr = alloca i32, align 4
  %name.addr = alloca ptr, align 8
  %status = alloca i32, align 4
  %tzdbNames = alloca ptr, align 8
  %s = alloca ptr, align 8
  %agg.tmp = alloca %"class.icu_75::ConstChar16Ptr", align 8
  %exn.slot = alloca ptr, align 8
  %ehselector.slot = alloca i32, align 4
  store ptr %this, ptr %this.addr, align 8
  store ptr %mzID, ptr %mzID.addr, align 8
  store i32 %type, ptr %type.addr, align 4
  store ptr %name, ptr %name.addr, align 8
  %0 = load ptr, ptr %name.addr, align 8
  call void @_ZN6icu_7513UnicodeString10setToBogusEv(ptr noundef nonnull align 8 dereferenceable(64) %0)
  %1 = load ptr, ptr %mzID.addr, align 8
  %call = call noundef signext i8 @_ZNK6icu_7513UnicodeString7isEmptyEv(ptr noundef nonnull align 8 dereferenceable(64) %1)
  %tobool = icmp ne i8 %call, 0
  br i1 %tobool, label %if.then, label %if.end

if.then:                                          ; preds = %entry
  %2 = load ptr, ptr %name.addr, align 8
  store ptr %2, ptr %retval, align 8
  br label %return

if.end:                                           ; preds = %entry
  store i32 0, ptr %status, align 4
  %3 = load ptr, ptr %mzID.addr, align 8
  %call2 = call noundef ptr @_ZN6icu_7517TZDBTimeZoneNames16getMetaZoneNamesERKNS_13UnicodeStringER10UErrorCode(ptr noundef nonnull align 8 dereferenceable(64) %3, ptr noundef nonnull align 4 dereferenceable(4) %status)
  store ptr %call2, ptr %tzdbNames, align 8
  %4 = load i32, ptr %status, align 4
  %call3 = call noundef signext i8 @_ZL9U_SUCCESS10UErrorCode(i32 noundef %4)
  %tobool4 = icmp ne i8 %call3, 0
  br i1 %tobool4, label %if.then5, label %if.end13

if.then5:                                         ; preds = %if.end
  %5 = load ptr, ptr %tzdbNames, align 8
  %cmp = icmp ne ptr %5, null
  br i1 %cmp, label %if.then6, label %if.end12

if.then6:                                         ; preds = %if.then5
  %6 = load ptr, ptr %tzdbNames, align 8
  %7 = load i32, ptr %type.addr, align 4
  %call7 = call noundef ptr @_ZNK6icu_759TZDBNames7getNameE17UTimeZoneNameType(ptr noundef nonnull align 8 dereferenceable(28) %6, i32 noundef %7)
  store ptr %call7, ptr %s, align 8
  %8 = load ptr, ptr %s, align 8
  %cmp8 = icmp ne ptr %8, null
  br i1 %cmp8, label %if.then9, label %if.end11

if.then9:                                         ; preds = %if.then6
  %9 = load ptr, ptr %name.addr, align 8
  %10 = load ptr, ptr %s, align 8
  call void @_ZN6icu_7514ConstChar16PtrC2EPKDs(ptr noundef nonnull align 8 dereferenceable(8) %agg.tmp, ptr noundef %10)
  %call10 = invoke noundef nonnull align 8 dereferenceable(64) ptr @_ZN6icu_7513UnicodeString5setToEaNS_14ConstChar16PtrEi(ptr noundef nonnull align 8 dereferenceable(64) %9, i8 noundef signext 1, ptr noundef %agg.tmp, i32 noundef -1)
          to label %invoke.cont unwind label %lpad

invoke.cont:                                      ; preds = %if.then9
  call void @_ZN6icu_7514ConstChar16PtrD2Ev(ptr noundef nonnull align 8 dereferenceable(8) %agg.tmp) #10
  br label %if.end11

lpad:                                             ; preds = %if.then9
  %11 = landingpad { ptr, i32 }
          cleanup
  %12 = extractvalue { ptr, i32 } %11, 0
  store ptr %12, ptr %exn.slot, align 8
  %13 = extractvalue { ptr, i32 } %11, 1
  store i32 %13, ptr %ehselector.slot, align 4
  call void @_ZN6icu_7514ConstChar16PtrD2Ev(ptr noundef nonnull align 8 dereferenceable(8) %agg.tmp) #10
  br label %eh.resume

if.end11:                                         ; preds = %invoke.cont, %if.then6
  br label %if.end12

if.end12:                                         ; preds = %if.end11, %if.then5
  br label %if.end13

if.end13:                                         ; preds = %if.end12, %if.end
  %14 = load ptr, ptr %name.addr, align 8
  store ptr %14, ptr %retval, align 8
  br label %return

return:                                           ; preds = %if.end13, %if.then
  %15 = load ptr, ptr %retval, align 8
  ret ptr %15

eh.resume:                                        ; preds = %lpad
  %exn = load ptr, ptr %exn.slot, align 8
  %sel = load i32, ptr %ehselector.slot, align 4
  %lpad.val = insertvalue { ptr, i32 } poison, ptr %exn, 0
  %lpad.val14 = insertvalue { ptr, i32 } %lpad.val, i32 %sel, 1
  resume { ptr, i32 } %lpad.val14
}