; Function Attrs: mustprogress uwtable
define noundef nonnull align 8 dereferenceable(64) ptr @_ZNK6icu_7517TZDBTimeZoneNames22getMetaZoneDisplayNameERKNS_13UnicodeStringE17UTimeZoneNameTypeRS1_(ptr nocapture nonnull readnone align 8 %this, ptr noundef nonnull align 8 dereferenceable(64) %mzID, i32 noundef %type, ptr noundef nonnull returned align 8 dereferenceable(64) %name) unnamed_addr #1 align 2 personality ptr @__gxx_personality_v0 {
entry:
  %status = alloca i32, align 4
  %agg.tmp = alloca %"class.icu_75::ConstChar16Ptr", align 8
  tail call void @_ZN6icu_7513UnicodeString10setToBogusEv(ptr noundef nonnull align 8 dereferenceable(64) %name)
  %fUnion.i = getelementptr inbounds i8, ptr %mzID, i64 8
  %0 = load i16, ptr %fUnion.i, align 8
  %cmp.i = icmp ugt i16 %0, 31
  br i1 %cmp.i, label %if.end, label %return

if.end:                                           ; preds = %entry
  store i32 0, ptr %status, align 4
  %call2 = call noundef ptr @_ZN6icu_7517TZDBTimeZoneNames16getMetaZoneNamesERKNS_13UnicodeStringER10UErrorCode(ptr noundef nonnull align 8 dereferenceable(64) %mzID, ptr noundef nonnull align 4 dereferenceable(4) %status)
  %1 = load i32, ptr %status, align 4
  %cmp.i7 = icmp slt i32 %1, 1
  %cmp = icmp ne ptr %call2, null
  %or.cond = and i1 %cmp, %cmp.i7
  br i1 %or.cond, label %if.then6, label %return

if.then6:                                         ; preds = %if.end
  %fNames.i = getelementptr inbounds i8, ptr %call2, i64 8
  %2 = load ptr, ptr %fNames.i, align 8
  %cmp.i8 = icmp eq ptr %2, null
  br i1 %cmp.i8, label %return, label %if.end.i

if.end.i:                                         ; preds = %if.then6
  switch i32 %type, label %return [
    i32 16, label %_ZNK6icu_759TZDBNames7getNameE17UTimeZoneNameType.exit
    i32 32, label %sw.bb3.i
  ]

sw.bb3.i:                                         ; preds = %if.end.i
  %arrayidx5.i = getelementptr inbounds i8, ptr %2, i64 8
  br label %_ZNK6icu_759TZDBNames7getNameE17UTimeZoneNameType.exit

_ZNK6icu_759TZDBNames7getNameE17UTimeZoneNameType.exit: ; preds = %if.end.i, %sw.bb3.i
  %.sink.i = phi ptr [ %arrayidx5.i, %sw.bb3.i ], [ %2, %if.end.i ]
  %3 = load ptr, ptr %.sink.i, align 8
  %cmp8.not = icmp eq ptr %3, null
  br i1 %cmp8.not, label %return, label %if.then9

if.then9:                                         ; preds = %_ZNK6icu_759TZDBNames7getNameE17UTimeZoneNameType.exit
  store ptr %3, ptr %agg.tmp, align 8
  %call10 = invoke noundef nonnull align 8 dereferenceable(64) ptr @_ZN6icu_7513UnicodeString5setToEaNS_14ConstChar16PtrEi(ptr noundef nonnull align 8 dereferenceable(64) %name, i8 noundef signext 1, ptr noundef nonnull %agg.tmp, i32 noundef -1)
          to label %invoke.cont unwind label %lpad

invoke.cont:                                      ; preds = %if.then9
  %4 = load ptr, ptr %agg.tmp, align 8
  call void asm sideeffect "", "rm,~{memory},~{dirflag},~{fpsr},~{flags}"(ptr %4) #20, !srcloc !11
  br label %return

lpad:                                             ; preds = %if.then9
  %5 = landingpad { ptr, i32 }
          cleanup
  %6 = load ptr, ptr %agg.tmp, align 8
  call void asm sideeffect "", "rm,~{memory},~{dirflag},~{fpsr},~{flags}"(ptr %6) #20, !srcloc !11
  resume { ptr, i32 } %5

return:                                           ; preds = %if.end.i, %if.then6, %if.end, %_ZNK6icu_759TZDBNames7getNameE17UTimeZoneNameType.exit, %invoke.cont, %entry
  ret ptr %name
}